target datalayout = "e-m:e-p270:32:32-p271:32:32-p272:64:64-i64:64-i128:128-f80:128-n8:16:32:64-S128"
target triple = "x86_64-pc-linux-gnu"

%struct.rb_obj_traverse_final_data = type { ptr, i32 }

; Function Attrs: nounwind sspstrong uwtable
define internal i32 @obj_traverse_final_i(i64 noundef %0, i64 noundef %1, i64 noundef %2) #0 {
  %4 = alloca i32, align 4
  %5 = alloca i64, align 8
  %6 = alloca i64, align 8
  %7 = alloca i64, align 8
  %8 = alloca ptr, align 8
  %9 = alloca i32, align 4
  store i64 %0, ptr %5, align 8, !tbaa !16
  store i64 %1, ptr %6, align 8, !tbaa !16
  store i64 %2, ptr %7, align 8, !tbaa !16
  call void @llvm.lifetime.start.p0(i64 8, ptr %8) #16
  %10 = load i64, ptr %7, align 8, !tbaa !16
  %11 = inttoptr i64 %10 to ptr
  store ptr %11, ptr %8, align 8, !tbaa !311
  %12 = load ptr, ptr %8, align 8, !tbaa !311
  %13 = getelementptr inbounds nuw %struct.rb_obj_traverse_final_data, ptr %12, i32 0, i32 0
  %14 = load ptr, ptr %13, align 8, !tbaa !155
  %15 = load i64, ptr %5, align 8, !tbaa !16
  %16 = call i32 %14(i64 noundef %15)
  %17 = icmp ne i32 %16, 0
  br i1 %17, label %18, label %21

18:                                               ; preds = %3
  %19 = load ptr, ptr %8, align 8, !tbaa !311
  %20 = getelementptr inbounds nuw %struct.rb_obj_traverse_final_data, ptr %19, i32 0, i32 1
  store i32 1, ptr %20, align 8, !tbaa !157
  store i32 1, ptr %4, align 4
  store i32 1, ptr %9, align 4
  br label %22

21:                                               ; preds = %3
  store i32 0, ptr %4, align 4
  store i32 1, ptr %9, align 4
  br label %22

22:                                               ; preds = %21, %18
  call void @llvm.lifetime.end.p0(i64 8, ptr %8) #16
  %23 = load i32, ptr %4, align 4
  ret i32 %23
}