; Function Attrs: nounwind sspstrong uwtable
define internal range(i32 0, 2) i32 @obj_traverse_final_i(i64 noundef %0, i64 %1, i64 noundef %2) #0 {
  %4 = inttoptr i64 %2 to ptr
  %5 = load ptr, ptr %4, align 8, !tbaa !164
  %6 = tail call i32 %5(i64 noundef %0) #19
  %.not = icmp eq i32 %6, 0
  br i1 %.not, label %9, label %7

7:                                                ; preds = %3
  %8 = getelementptr inbounds nuw i8, ptr %4, i64 8
  store i32 1, ptr %8, align 8, !tbaa !166
  br label %9

9:                                                ; preds = %3, %7
  %.0 = phi i32 [ 1, %7 ], [ 0, %3 ]
  ret i32 %.0
}